target datalayout = "e-m:e-p270:32:32-p271:32:32-p272:64:64-i64:64-i128:128-f80:128-n8:16:32:64-S128"
target triple = "x86_64-pc-linux-gnu"

%struct.PyVarObject = type { %struct._object, i64 }
%struct._object = type { i64, ptr }
%struct._longobject = type { %struct.PyVarObject, [1 x i32] }
%struct.py_annoy = type { %struct._object, i32, ptr }

@_Py_TrueStruct = external global %struct._longobject, align 8
@PyExc_Exception = external global ptr, align 8
@_ZZL11py_an_buildP8py_annoyP7_objectS2_E6kwlist = internal global [3 x ptr] [ptr @.str.49, ptr @.str.50, ptr null], align 16
@.str.51 = private unnamed_addr constant [4 x i8] c"i|i\00", align 1

; Function Attrs: inlinehint mustprogress nounwind sspstrong uwtable
define internal void @_ZL10_Py_INCREFP7_object(ptr noundef %0) #6 {
  %2 = alloca ptr, align 8
  store ptr %0, ptr %2, align 8, !tbaa !14
  %3 = load ptr, ptr %2, align 8, !tbaa !14
  %4 = getelementptr inbounds nuw %struct._object, ptr %3, i32 0, i32 0
  %5 = load i64, ptr %4, align 8, !tbaa !45
  %6 = add i64 %5, 1
  store i64 %6, ptr %4, align 8, !tbaa !45
  ret void
}

; Function Attrs: inlinehint mustprogress sspstrong uwtable
define internal noundef ptr @_ZL10_Py_NewRefP7_object(ptr noundef %0) #5 {
  %2 = alloca ptr, align 8
  store ptr %0, ptr %2, align 8, !tbaa !14
  %3 = load ptr, ptr %2, align 8, !tbaa !14
  call void @_ZL10_Py_INCREFP7_object(ptr noundef %3)
  %4 = load ptr, ptr %2, align 8, !tbaa !14
  ret ptr %4
}

; Function Attrs: mustprogress sspstrong uwtable
define internal noundef ptr @_ZL11py_an_buildP8py_annoyP7_objectS2_(ptr noundef %0, ptr noundef %1, ptr noundef %2) #2 {
  %4 = alloca ptr, align 8
  %5 = alloca ptr, align 8
  %6 = alloca ptr, align 8
  %7 = alloca ptr, align 8
  %8 = alloca i32, align 4
  %9 = alloca i32, align 4
  %10 = alloca i32, align 4
  %11 = alloca i8, align 1
  %12 = alloca ptr, align 8
  %13 = alloca ptr, align 8
  store ptr %0, ptr %5, align 8, !tbaa !31
  store ptr %1, ptr %6, align 8, !tbaa !14
  store ptr %2, ptr %7, align 8, !tbaa !14
  call void @llvm.lifetime.start.p0(i64 4, ptr %8) #28
  call void @llvm.lifetime.start.p0(i64 4, ptr %9) #28
  store i32 -1, ptr %9, align 4, !tbaa !12
  %14 = load ptr, ptr %5, align 8, !tbaa !31
  %15 = getelementptr inbounds nuw %struct.py_annoy, ptr %14, i32 0, i32 2
  %16 = load ptr, ptr %15, align 8, !tbaa !36
  %17 = icmp ne ptr %16, null
  br i1 %17, label %19, label %18

18:                                               ; preds = %3
  store ptr null, ptr %4, align 8
  store i32 1, ptr %10, align 4
  br label %47

19:                                               ; preds = %3
  %20 = load ptr, ptr %6, align 8, !tbaa !14
  %21 = load ptr, ptr %7, align 8, !tbaa !14
  %22 = call i32 (ptr, ptr, ptr, ptr, ...) @PyArg_ParseTupleAndKeywords(ptr noundef %20, ptr noundef %21, ptr noundef @.str.51, ptr noundef @_ZZL11py_an_buildP8py_annoyP7_objectS2_E6kwlist, ptr noundef %8, ptr noundef %9)
  %23 = icmp ne i32 %22, 0
  br i1 %23, label %25, label %24

24:                                               ; preds = %19
  store ptr null, ptr %4, align 8
  store i32 1, ptr %10, align 4
  br label %47

25:                                               ; preds = %19
  call void @llvm.lifetime.start.p0(i64 1, ptr %11) #28
  call void @llvm.lifetime.start.p0(i64 8, ptr %12) #28
  call void @llvm.lifetime.start.p0(i64 8, ptr %13) #28
  %26 = call ptr @PyEval_SaveThread()
  store ptr %26, ptr %13, align 8, !tbaa !58
  %27 = load ptr, ptr %5, align 8, !tbaa !31
  %28 = getelementptr inbounds nuw %struct.py_annoy, ptr %27, i32 0, i32 2
  %29 = load ptr, ptr %28, align 8, !tbaa !36
  %30 = load i32, ptr %8, align 4, !tbaa !12
  %31 = load i32, ptr %9, align 4, !tbaa !12
  %32 = load ptr, ptr %29, align 8, !tbaa !40
  %33 = getelementptr inbounds ptr, ptr %32, i64 3
  %34 = load ptr, ptr %33, align 8
  %35 = call noundef zeroext i1 %34(ptr noundef nonnull align 8 dereferenceable(8) %29, i32 noundef %30, i32 noundef %31, ptr noundef %12)
  %36 = zext i1 %35 to i8
  store i8 %36, ptr %11, align 1, !tbaa !32
  %37 = load ptr, ptr %13, align 8, !tbaa !58
  call void @PyEval_RestoreThread(ptr noundef %37)
  call void @llvm.lifetime.end.p0(i64 8, ptr %13) #28
  %38 = load i8, ptr %11, align 1, !tbaa !32, !range !34, !noundef !35
  %39 = trunc i8 %38 to i1
  br i1 %39, label %44, label %40

40:                                               ; preds = %25
  %41 = load ptr, ptr @PyExc_Exception, align 8, !tbaa !14
  %42 = load ptr, ptr %12, align 8, !tbaa !54
  call void @PyErr_SetString(ptr noundef %41, ptr noundef %42)
  %43 = load ptr, ptr %12, align 8, !tbaa !54
  call void @free(ptr noundef %43) #28
  store ptr null, ptr %4, align 8
  store i32 1, ptr %10, align 4
  br label %46

44:                                               ; preds = %25
  %45 = call noundef ptr @_ZL10_Py_NewRefP7_object(ptr noundef @_Py_TrueStruct)
  store ptr %45, ptr %4, align 8
  store i32 1, ptr %10, align 4
  br label %46

46:                                               ; preds = %44, %40
  call void @llvm.lifetime.end.p0(i64 8, ptr %12) #28
  call void @llvm.lifetime.end.p0(i64 1, ptr %11) #28
  br label %47

47:                                               ; preds = %46, %24, %18
  call void @llvm.lifetime.end.p0(i64 4, ptr %9) #28
  call void @llvm.lifetime.end.p0(i64 4, ptr %8) #28
  %48 = load ptr, ptr %4, align 8
  ret ptr %48
}