; Function Attrs: mustprogress sspstrong uwtable
define internal noundef ptr @_ZL11py_an_buildP8py_annoyP7_objectS2_(ptr noundef readonly captures(none) %0, ptr noundef %1, ptr noundef %2) #2 {
  %4 = alloca i32, align 4
  %5 = alloca i32, align 4
  %6 = alloca ptr, align 8
  call void @llvm.lifetime.start.p0(i64 4, ptr nonnull %4) #33
  call void @llvm.lifetime.start.p0(i64 4, ptr nonnull %5) #33
  store i32 -1, ptr %5, align 4, !tbaa !10
  %7 = getelementptr inbounds nuw i8, ptr %0, i64 24
  %8 = load ptr, ptr %7, align 8, !tbaa !25
  %.not = icmp eq ptr %8, null
  br i1 %.not, label %28, label %9

9:                                                ; preds = %3
  %10 = call i32 (ptr, ptr, ptr, ptr, ...) @PyArg_ParseTupleAndKeywords(ptr noundef %1, ptr noundef %2, ptr noundef nonnull @.str.51, ptr noundef nonnull @_ZZL11py_an_buildP8py_annoyP7_objectS2_E6kwlist, ptr noundef nonnull %4, ptr noundef nonnull %5)
  %.not6 = icmp eq i32 %10, 0
  br i1 %.not6, label %28, label %11

11:                                               ; preds = %9
  call void @llvm.lifetime.start.p0(i64 8, ptr nonnull %6) #33
  %12 = call ptr @PyEval_SaveThread()
  %13 = load ptr, ptr %7, align 8, !tbaa !25
  %14 = load i32, ptr %4, align 4, !tbaa !10
  %15 = load i32, ptr %5, align 4, !tbaa !10
  %16 = load ptr, ptr %13, align 8, !tbaa !28
  %17 = getelementptr inbounds nuw i8, ptr %16, i64 24
  %18 = load ptr, ptr %17, align 8
  %19 = call noundef zeroext i1 %18(ptr noundef nonnull align 8 dereferenceable(8) %13, i32 noundef %14, i32 noundef %15, ptr noundef nonnull %6)
  call void @PyEval_RestoreThread(ptr noundef %12)
  br i1 %19, label %24, label %20

20:                                               ; preds = %11
  %21 = load ptr, ptr @PyExc_Exception, align 8, !tbaa !30
  %22 = load ptr, ptr %6, align 8, !tbaa !41
  call void @PyErr_SetString(ptr noundef %21, ptr noundef %22)
  %23 = load ptr, ptr %6, align 8, !tbaa !41
  call void @free(ptr noundef %23) #33
  br label %27

24:                                               ; preds = %11
  %25 = load i64, ptr @_Py_TrueStruct, align 8, !tbaa !21
  %26 = add i64 %25, 1
  store i64 %26, ptr @_Py_TrueStruct, align 8, !tbaa !21
  br label %27

27:                                               ; preds = %24, %20
  %.1 = phi ptr [ @_Py_TrueStruct, %24 ], [ null, %20 ]
  call void @llvm.lifetime.end.p0(i64 8, ptr nonnull %6) #33
  br label %28

28:                                               ; preds = %9, %3, %27
  %.0 = phi ptr [ %.1, %27 ], [ null, %3 ], [ null, %9 ]
  call void @llvm.lifetime.end.p0(i64 4, ptr nonnull %5) #33
  call void @llvm.lifetime.end.p0(i64 4, ptr nonnull %4) #33
  ret ptr %.0
}